target datalayout = "e-m:e-p270:32:32-p271:32:32-p272:64:64-i64:64-i128:128-f80:128-n8:16:32:64-S128"
target triple = "x86_64-pc-linux-gnu"

%"class.icu_77::FormattedDateInterval" = type <{ %"class.icu_77::FormattedValue", ptr, i32, [4 x i8] }>
%"class.icu_77::FormattedValue" = type { ptr }

; Function Attrs: inlinehint mustprogress nounwind uwtable
define internal noundef signext i8 @_ZL9U_FAILURE10UErrorCode(i32 noundef %0) #2 {
  %2 = alloca i32, align 4
  store i32 %0, ptr %2, align 4, !tbaa !15
  %3 = load i32, ptr %2, align 4, !tbaa !15
  %4 = icmp sgt i32 %3, 0
  %5 = zext i1 %4 to i8
  ret i8 %5
}

; Function Attrs: mustprogress uwtable
define noundef signext i8 @_ZNK6icu_7721FormattedDateInterval12nextPositionERNS_24ConstrainedFieldPositionER10UErrorCode(ptr noundef nonnull align 8 dereferenceable(20) %0, ptr noundef nonnull align 8 dereferenceable(25) %1, ptr noundef nonnull align 4 dereferenceable(4) %2) unnamed_addr #1 align 2 {
  %4 = alloca i8, align 1
  %5 = alloca ptr, align 8
  %6 = alloca ptr, align 8
  %7 = alloca ptr, align 8
  store ptr %0, ptr %5, align 8, !tbaa !25
  store ptr %1, ptr %6, align 8, !tbaa !37
  store ptr %2, ptr %7, align 8, !tbaa !22
  %8 = load ptr, ptr %5, align 8
  %9 = load ptr, ptr %7, align 8, !tbaa !22
  %10 = load i32, ptr %9, align 4, !tbaa !15
  %11 = call noundef signext i8 @_ZL9U_FAILURE10UErrorCode(i32 noundef %10)
  %12 = icmp ne i8 %11, 0
  br i1 %12, label %13, label %14

13:                                               ; preds = %3
  store i8 0, ptr %4, align 1
  br label %31

14:                                               ; preds = %3
  %15 = getelementptr inbounds nuw %"class.icu_77::FormattedDateInterval", ptr %8, i32 0, i32 1
  %16 = load ptr, ptr %15, align 8, !tbaa !29
  %17 = icmp eq ptr %16, null
  br i1 %17, label %18, label %22

18:                                               ; preds = %14
  %19 = getelementptr inbounds nuw %"class.icu_77::FormattedDateInterval", ptr %8, i32 0, i32 2
  %20 = load i32, ptr %19, align 8, !tbaa !32
  %21 = load ptr, ptr %7, align 8, !tbaa !22
  store i32 %20, ptr %21, align 4, !tbaa !15
  store i8 0, ptr %4, align 1
  br label %31

22:                                               ; preds = %14
  %23 = getelementptr inbounds nuw %"class.icu_77::FormattedDateInterval", ptr %8, i32 0, i32 1
  %24 = load ptr, ptr %23, align 8, !tbaa !29
  %25 = load ptr, ptr %6, align 8, !tbaa !37
  %26 = load ptr, ptr %7, align 8, !tbaa !22
  %27 = load ptr, ptr %24, align 8, !tbaa !27
  %28 = getelementptr inbounds ptr, ptr %27, i64 5
  %29 = load ptr, ptr %28, align 8
  %30 = call noundef signext i8 %29(ptr noundef nonnull align 8 dereferenceable(104) %24, ptr noundef nonnull align 8 dereferenceable(25) %25, ptr noundef nonnull align 4 dereferenceable(4) %26)
  store i8 %30, ptr %4, align 1
  br label %31

31:                                               ; preds = %22, %18, %13
  %32 = load i8, ptr %4, align 1
  ret i8 %32
}